; Function Attrs: mustprogress nofree norecurse nosync nounwind willreturn memory(argmem: readwrite) uwtable
define hidden void @_ZN16JfrJavaArguments8push_oopE6Handle(ptr nocapture noundef nonnull align 8 dereferenceable(300) %0, ptr readonly %1) local_unnamed_addr #1 align 2 {
  %3 = icmp eq ptr %1, null
  br i1 %3, label %_ZN16JfrJavaArguments10Parameters8push_oopE6Handle.exit, label %4

4:                                                ; preds = %2
  %5 = load ptr, ptr %1, align 8
  br label %_ZN16JfrJavaArguments10Parameters8push_oopE6Handle.exit

_ZN16JfrJavaArguments10Parameters8push_oopE6Handle.exit: ; preds = %2, %4
  %6 = phi ptr [ %5, %4 ], [ null, %2 ]
  %7 = getelementptr inbounds i8, ptr %0, i64 256
  %8 = load <2 x i32>, ptr %7, align 8
  %9 = extractelement <2 x i32> %8, i64 0
  %10 = sext i32 %9 to i64
  %11 = getelementptr inbounds [16 x %class.JavaValue], ptr %0, i64 0, i64 %10
  %12 = add nsw <2 x i32> %8, <i32 1, i32 1>
  store <2 x i32> %12, ptr %7, align 8
  store i8 12, ptr %11, align 8
  %.sroa.22.0..sroa_idx.i.i = getelementptr inbounds i8, ptr %11, i64 8
  store ptr %6, ptr %.sroa.22.0..sroa_idx.i.i, align 8
  ret void
}